target datalayout = "e-m:e-p270:32:32-p271:32:32-p272:64:64-i64:64-i128:128-f80:128-n8:16:32:64-S128"
target triple = "x86_64-pc-linux-gnu"

; Function Attrs: nounwind uwtable
define void @ff_adaptive_gain_control(ptr noundef %0, ptr noundef %1, float noundef %2, i32 noundef %3, float noundef %4, ptr noundef %5) #0 {
  %7 = alloca ptr, align 8
  %8 = alloca ptr, align 8
  %9 = alloca float, align 4
  %10 = alloca i32, align 4
  %11 = alloca float, align 4
  %12 = alloca ptr, align 8
  %13 = alloca i32, align 4
  %14 = alloca float, align 4
  %15 = alloca float, align 4
  %16 = alloca float, align 4
  store ptr %0, ptr %7, align 8, !tbaa !27
  store ptr %1, ptr %8, align 8, !tbaa !27
  store float %2, ptr %9, align 4, !tbaa !24
  store i32 %3, ptr %10, align 4, !tbaa !11
  store float %4, ptr %11, align 4, !tbaa !24
  store ptr %5, ptr %12, align 8, !tbaa !27
  call void @llvm.lifetime.start.p0(i64 4, ptr %13) #6
  call void @llvm.lifetime.start.p0(i64 4, ptr %14) #6
  %17 = load ptr, ptr %8, align 8, !tbaa !27
  %18 = load ptr, ptr %8, align 8, !tbaa !27
  %19 = load i32, ptr %10, align 4, !tbaa !11
  %20 = call nsz float @ff_scalarproduct_float_c(ptr noundef %17, ptr noundef %18, i32 noundef %19)
  store float %20, ptr %14, align 4, !tbaa !24
  call void @llvm.lifetime.start.p0(i64 4, ptr %15) #6
  store float 1.000000e+00, ptr %15, align 4, !tbaa !24
  call void @llvm.lifetime.start.p0(i64 4, ptr %16) #6
  %21 = load ptr, ptr %12, align 8, !tbaa !27
  %22 = load float, ptr %21, align 4, !tbaa !24
  store float %22, ptr %16, align 4, !tbaa !24
  %23 = load float, ptr %14, align 4, !tbaa !24
  %24 = fcmp nsz une float %23, 0.000000e+00
  br i1 %24, label %25, label %32

25:                                               ; preds = %6
  %26 = load float, ptr %9, align 4, !tbaa !24
  %27 = load float, ptr %14, align 4, !tbaa !24
  %28 = fdiv nsz float %26, %27
  %29 = fpext nsz float %28 to double
  %30 = call nsz double @llvm.sqrt.f64(double %29)
  %31 = fptrunc nsz double %30 to float
  store float %31, ptr %15, align 4, !tbaa !24
  br label %32

32:                                               ; preds = %25, %6
  %33 = load float, ptr %11, align 4, !tbaa !24
  %34 = fpext nsz float %33 to double
  %35 = fsub nsz double 1.000000e+00, %34
  %36 = load float, ptr %15, align 4, !tbaa !24
  %37 = fpext nsz float %36 to double
  %38 = fmul nsz double %37, %35
  %39 = fptrunc nsz double %38 to float
  store float %39, ptr %15, align 4, !tbaa !24
  store i32 0, ptr %13, align 4, !tbaa !11
  br label %40

40:                                               ; preds = %60, %32
  %41 = load i32, ptr %13, align 4, !tbaa !11
  %42 = load i32, ptr %10, align 4, !tbaa !11
  %43 = icmp slt i32 %41, %42
  br i1 %43, label %44, label %63

44:                                               ; preds = %40
  %45 = load float, ptr %11, align 4, !tbaa !24
  %46 = load float, ptr %16, align 4, !tbaa !24
  %47 = load float, ptr %15, align 4, !tbaa !24
  %48 = call nsz float @llvm.fmuladd.f32(float %45, float %46, float %47)
  store float %48, ptr %16, align 4, !tbaa !24
  %49 = load ptr, ptr %8, align 8, !tbaa !27
  %50 = load i32, ptr %13, align 4, !tbaa !11
  %51 = sext i32 %50 to i64
  %52 = getelementptr inbounds float, ptr %49, i64 %51
  %53 = load float, ptr %52, align 4, !tbaa !24
  %54 = load float, ptr %16, align 4, !tbaa !24
  %55 = fmul nsz float %53, %54
  %56 = load ptr, ptr %7, align 8, !tbaa !27
  %57 = load i32, ptr %13, align 4, !tbaa !11
  %58 = sext i32 %57 to i64
  %59 = getelementptr inbounds float, ptr %56, i64 %58
  store float %55, ptr %59, align 4, !tbaa !24
  br label %60

60:                                               ; preds = %44
  %61 = load i32, ptr %13, align 4, !tbaa !11
  %62 = add nsw i32 %61, 1
  store i32 %62, ptr %13, align 4, !tbaa !11
  br label %40, !llvm.loop !30

63:                                               ; preds = %40
  %64 = load float, ptr %16, align 4, !tbaa !24
  %65 = load ptr, ptr %12, align 8, !tbaa !27
  store float %64, ptr %65, align 4, !tbaa !24
  call void @llvm.lifetime.end.p0(i64 4, ptr %16) #6
  call void @llvm.lifetime.end.p0(i64 4, ptr %15) #6
  call void @llvm.lifetime.end.p0(i64 4, ptr %14) #6
  call void @llvm.lifetime.end.p0(i64 4, ptr %13) #6
  ret void
}