; Function Attrs: nounwind uwtable
define void @ff_adaptive_gain_control(ptr noundef writeonly captures(none) %0, ptr noundef %1, float noundef %2, i32 noundef %3, float noundef %4, ptr noundef captures(none) %5) local_unnamed_addr #2 {
  %7 = tail call nsz float @ff_scalarproduct_float_c(ptr noundef %1, ptr noundef %1, i32 noundef %3) #7
  %8 = load float, ptr %5, align 4, !tbaa !17
  %9 = fcmp nsz une float %7, 0.000000e+00
  %10 = fdiv nsz float %2, %7
  %11 = tail call nsz float @llvm.sqrt.f32(float %10)
  %12 = fpext nsz float %11 to double
  %.021 = select i1 %9, double %12, double 1.000000e+00
  %13 = fpext nsz float %4 to double
  %14 = fsub nsz double 1.000000e+00, %13
  %15 = fmul nsz double %14, %.021
  %16 = fptrunc nsz double %15 to float
  %17 = icmp sgt i32 %3, 0
  br i1 %17, label %.lr.ph.preheader, label %._crit_edge

.lr.ph.preheader:                                 ; preds = %6
  %wide.trip.count = zext nneg i32 %3 to i64
  br label %.lr.ph

.lr.ph:                                           ; preds = %.lr.ph.preheader, %.lr.ph
  %indvars.iv = phi i64 [ 0, %.lr.ph.preheader ], [ %indvars.iv.next, %.lr.ph ]
  %.025 = phi float [ %8, %.lr.ph.preheader ], [ %18, %.lr.ph ]
  %18 = tail call nsz float @llvm.fmuladd.f32(float %4, float %.025, float %16)
  %19 = getelementptr inbounds nuw float, ptr %1, i64 %indvars.iv
  %20 = load float, ptr %19, align 4, !tbaa !17
  %21 = fmul nsz float %18, %20
  %22 = getelementptr inbounds nuw float, ptr %0, i64 %indvars.iv
  store float %21, ptr %22, align 4, !tbaa !17
  %indvars.iv.next = add nuw nsw i64 %indvars.iv, 1
  %exitcond.not = icmp eq i64 %indvars.iv.next, %wide.trip.count
  br i1 %exitcond.not, label %._crit_edge, label %.lr.ph, !llvm.loop !21

._crit_edge:                                      ; preds = %.lr.ph, %6
  %.0.lcssa = phi float [ %8, %6 ], [ %18, %.lr.ph ]
  store float %.0.lcssa, ptr %5, align 4, !tbaa !17
  ret void
}